target datalayout = "e-m:e-p270:32:32-p271:32:32-p272:64:64-i64:64-i128:128-f80:128-n8:16:32:64-S128"
target triple = "x86_64-pc-linux-gnu"

@mac_key_hash_handlers = internal global ptr null, align 8
@.str.14 = private unnamed_addr constant [29 x i8] c"%s:%u: failed assertion \22%s\22\00", align 1
@.str.15 = private unnamed_addr constant [36 x i8] c"epan/dissectors/packet-ieee802154.c\00", align 1
@.str.16 = private unnamed_addr constant [73 x i8] c"wmem_tree_lookup32(mac_key_hash_handlers, hash_identifier) == ((void*)0)\00", align 1

; Function Attrs: null_pointer_is_valid sspstrong uwtable
define hidden void @register_ieee802154_mac_key_hash_handler(i32 noundef %0, ptr noundef %1) #0 {
  %3 = alloca i32, align 4
  %4 = alloca ptr, align 8
  store i32 %0, ptr %3, align 4
  store ptr %1, ptr %4, align 8
  %5 = load ptr, ptr @mac_key_hash_handlers, align 8
  %6 = load i32, ptr %3, align 4
  %7 = call ptr @wmem_tree_lookup32(ptr noundef %5, i32 noundef %6)
  %8 = icmp eq ptr %7, null
  br i1 %8, label %9, label %10

9:                                                ; preds = %2
  br label %12

10:                                               ; preds = %2
  call void (ptr, ...) @proto_report_dissector_bug(ptr noundef @.str.14, ptr noundef @.str.15, i32 noundef 1890, ptr noundef @.str.16) #16
  unreachable

11:                                               ; No predecessors!
  br label %12

12:                                               ; preds = %11, %9
  %13 = load ptr, ptr @mac_key_hash_handlers, align 8
  %14 = load i32, ptr %3, align 4
  %15 = load ptr, ptr %4, align 8
  call void @wmem_tree_insert32(ptr noundef %13, i32 noundef %14, ptr noundef %15)
  ret void
}