; Function Attrs: null_pointer_is_valid sspstrong uwtable
define hidden void @register_ieee802154_mac_key_hash_handler(i32 noundef %0, ptr noundef %1) local_unnamed_addr #0 {
  %3 = load ptr, ptr @mac_key_hash_handlers, align 8
  %4 = tail call ptr @wmem_tree_lookup32(ptr noundef %3, i32 noundef %0)
  %5 = icmp eq ptr %4, null
  br i1 %5, label %7, label %6

6:                                                ; preds = %2
  tail call void (ptr, ...) @proto_report_dissector_bug(ptr noundef nonnull @.str.14, ptr noundef nonnull @.str.15, i32 noundef 1890, ptr noundef nonnull @.str.16) #18
  unreachable

7:                                                ; preds = %2
  %8 = load ptr, ptr @mac_key_hash_handlers, align 8
  tail call void @wmem_tree_insert32(ptr noundef %8, i32 noundef %0, ptr noundef %1)
  ret void
}